target datalayout = "e-m:e-p270:32:32-p271:32:32-p272:64:64-i64:64-i128:128-f80:128-n8:16:32:64-S128"
target triple = "x86_64-pc-linux-gnu"

%struct.H5SM_master_table_t = type { %struct.H5C_cache_entry_t, i64, i32, ptr }
%struct.H5C_cache_entry_t = type { ptr, i64, i64, ptr, i8, ptr, i8, i8, i8, i8, i32, i8, i8, i8, i8, i8, i32, ptr, i32, i32, i32, i32, i32, i8, i8, ptr, ptr, ptr, ptr, ptr, ptr, i8, i32, i8, i64, ptr, i64, i64, i32, i8, i32, i32, i8, ptr, ptr, ptr }
%struct.H5SM_index_header_t = type { i32, i64, i64, i64, i64, i32, i64, i64, i64 }

@H5SM_init_g = global i8 0, align 1
@H5_libterm_g = external global i8, align 1
@.str.4 = private unnamed_addr constant [98 x i8] c"generated/home/dtcxzyw/WorkSpace/Projects/compilers/llvm-opt-benchmark/bench/hdf5/hdf5/src/H5SM.c\00", align 1
@H5E_SOHM_g = external global i64, align 8
@H5E_CANTGET_g = external global i64, align 8
@__func__.H5SM__get_index = private unnamed_addr constant [16 x i8] c"H5SM__get_index\00", align 1
@.str.20 = private unnamed_addr constant [31 x i8] c"can't map message type to flag\00", align 1
@H5E_BADTYPE_g = external global i64, align 8
@__func__.H5SM__type_to_flag = private unnamed_addr constant [19 x i8] c"H5SM__type_to_flag\00", align 1
@.str.90 = private unnamed_addr constant [24 x i8] c"unknown message type ID\00", align 1

; Function Attrs: nounwind uwtable
define internal i32 @H5SM__type_to_flag(i32 noundef %0, ptr noundef %1) #0 {
  %3 = alloca i32, align 4
  %4 = alloca ptr, align 8
  %5 = alloca i32, align 4
  %6 = alloca i8, align 1
  store i32 %0, ptr %3, align 4, !tbaa !14
  store ptr %1, ptr %4, align 8, !tbaa !52
  call void @llvm.lifetime.start.p0(i64 4, ptr %5) #8
  store i32 0, ptr %5, align 4, !tbaa !14
  call void @llvm.lifetime.start.p0(i64 1, ptr %6) #8
  store i8 0, ptr %6, align 1, !tbaa !18
  %7 = load i8, ptr @H5SM_init_g, align 1, !tbaa !18, !range !20, !noundef !21
  %8 = trunc i8 %7 to i1
  br i1 %8, label %13, label %9

9:                                                ; preds = %2
  %10 = load i8, ptr @H5_libterm_g, align 1, !tbaa !18, !range !20, !noundef !21
  %11 = trunc i8 %10 to i1
  %12 = xor i1 %11, true
  br label %13

13:                                               ; preds = %9, %2
  %14 = phi i1 [ true, %2 ], [ %12, %9 ]
  %15 = xor i1 %14, true
  %16 = xor i1 %15, true
  %17 = zext i1 %16 to i32
  %18 = sext i32 %17 to i64
  %19 = call i64 @llvm.expect.i64(i64 %18, i64 1)
  %20 = icmp ne i64 %19, 0
  br i1 %20, label %21, label %49

21:                                               ; preds = %13
  %22 = load i32, ptr %3, align 4, !tbaa !14
  switch i32 %22, label %28 [
    i32 4, label %23
    i32 1, label %24
    i32 3, label %24
    i32 5, label %24
    i32 11, label %24
    i32 12, label %24
  ]

23:                                               ; preds = %21
  store i32 5, ptr %3, align 4, !tbaa !14
  br label %24

24:                                               ; preds = %21, %21, %21, %21, %21, %23
  %25 = load i32, ptr %3, align 4, !tbaa !14
  %26 = shl i32 1, %25
  %27 = load ptr, ptr %4, align 8, !tbaa !52
  store i32 %26, ptr %27, align 4, !tbaa !14
  br label %47

28:                                               ; preds = %21
  br label %29

29:                                               ; preds = %28
  br label %30

30:                                               ; preds = %29
  br label %31

31:                                               ; preds = %30
  %32 = load i64, ptr @H5E_SOHM_g, align 8, !tbaa !16
  %33 = load i64, ptr @H5E_BADTYPE_g, align 8, !tbaa !16
  %34 = call i32 (ptr, ptr, i32, i64, i64, ptr, ...) @H5E_printf_stack(ptr noundef @.str.4, ptr noundef @__func__.H5SM__type_to_flag, i32 noundef 281, i64 noundef %32, i64 noundef %33, ptr noundef @.str.90)
  br label %35

35:                                               ; preds = %31
  br label %36

36:                                               ; preds = %35
  store i8 1, ptr %6, align 1, !tbaa !18
  %37 = load i8, ptr %6, align 1, !tbaa !18, !range !20, !noundef !21
  %38 = trunc i8 %37 to i1
  %39 = zext i1 %38 to i8
  store i8 %39, ptr %6, align 1, !tbaa !18
  br label %40

40:                                               ; preds = %36
  br label %41

41:                                               ; preds = %40
  br label %42

42:                                               ; preds = %41
  store i32 -1, ptr %5, align 4, !tbaa !14
  br label %48

43:                                               ; No predecessors!
  br label %44

44:                                               ; preds = %43
  br label %45

45:                                               ; preds = %44
  br label %46

46:                                               ; preds = %45
  br label %47

47:                                               ; preds = %46, %24
  br label %48

48:                                               ; preds = %47, %42
  br label %49

49:                                               ; preds = %48, %13
  %50 = load i32, ptr %5, align 4, !tbaa !14
  call void @llvm.lifetime.end.p0(i64 1, ptr %6) #8
  call void @llvm.lifetime.end.p0(i64 4, ptr %5) #8
  ret i32 %50
}

; Function Attrs: nounwind uwtable
define i32 @H5SM__get_index(ptr noundef %0, i32 noundef %1, ptr noundef %2) #0 {
  %4 = alloca ptr, align 8
  %5 = alloca i32, align 4
  %6 = alloca ptr, align 8
  %7 = alloca i32, align 4
  %8 = alloca i64, align 8
  %9 = alloca i32, align 4
  %10 = alloca i8, align 1
  %11 = alloca i64, align 8
  %12 = alloca i32, align 4
  store ptr %0, ptr %4, align 8, !tbaa !12
  store i32 %1, ptr %5, align 4, !tbaa !14
  store ptr %2, ptr %6, align 8, !tbaa !50
  call void @llvm.lifetime.start.p0(i64 4, ptr %7) #8
  call void @llvm.lifetime.start.p0(i64 8, ptr %8) #8
  store i64 -1, ptr %8, align 8, !tbaa !16
  call void @llvm.lifetime.start.p0(i64 4, ptr %9) #8
  store i32 0, ptr %9, align 4, !tbaa !14
  call void @llvm.lifetime.start.p0(i64 1, ptr %10) #8
  store i8 0, ptr %10, align 1, !tbaa !18
  %13 = load i8, ptr @H5SM_init_g, align 1, !tbaa !18, !range !20, !noundef !21
  %14 = trunc i8 %13 to i1
  br i1 %14, label %19, label %15

15:                                               ; preds = %3
  %16 = load i8, ptr @H5_libterm_g, align 1, !tbaa !18, !range !20, !noundef !21
  %17 = trunc i8 %16 to i1
  %18 = xor i1 %17, true
  br label %19

19:                                               ; preds = %15, %3
  %20 = phi i1 [ true, %3 ], [ %18, %15 ]
  %21 = xor i1 %20, true
  %22 = xor i1 %21, true
  %23 = zext i1 %22 to i32
  %24 = sext i32 %23 to i64
  %25 = call i64 @llvm.expect.i64(i64 %24, i64 1)
  %26 = icmp ne i64 %25, 0
  br i1 %26, label %27, label %81

27:                                               ; preds = %19
  %28 = load i32, ptr %5, align 4, !tbaa !14
  %29 = call i32 @H5SM__type_to_flag(i32 noundef %28, ptr noundef %7)
  %30 = icmp slt i32 %29, 0
  br i1 %30, label %31, label %50

31:                                               ; preds = %27
  br label %32

32:                                               ; preds = %31
  br label %33

33:                                               ; preds = %32
  br label %34

34:                                               ; preds = %33
  %35 = load i64, ptr @H5E_SOHM_g, align 8, !tbaa !16
  %36 = load i64, ptr @H5E_CANTGET_g, align 8, !tbaa !16
  %37 = call i32 (ptr, ptr, i32, i64, i64, ptr, ...) @H5E_printf_stack(ptr noundef @.str.4, ptr noundef @__func__.H5SM__get_index, i32 noundef 312, i64 noundef %35, i64 noundef %36, ptr noundef @.str.20)
  br label %38

38:                                               ; preds = %34
  br label %39

39:                                               ; preds = %38
  store i8 1, ptr %10, align 1, !tbaa !18
  %40 = load i8, ptr %10, align 1, !tbaa !18, !range !20, !noundef !21
  %41 = trunc i8 %40 to i1
  %42 = zext i1 %41 to i8
  store i8 %42, ptr %10, align 1, !tbaa !18
  br label %43

43:                                               ; preds = %39
  br label %44

44:                                               ; preds = %43
  br label %45

45:                                               ; preds = %44
  store i32 -1, ptr %9, align 4, !tbaa !14
  br label %80

46:                                               ; No predecessors!
  br label %47

47:                                               ; preds = %46
  br label %48

48:                                               ; preds = %47
  br label %49

49:                                               ; preds = %48
  br label %50

50:                                               ; preds = %49, %27
  call void @llvm.lifetime.start.p0(i64 8, ptr %11) #8
  store i64 0, ptr %11, align 8, !tbaa !16
  br label %51

51:                                               ; preds = %73, %50
  %52 = load i64, ptr %11, align 8, !tbaa !16
  %53 = load ptr, ptr %4, align 8, !tbaa !12
  %54 = getelementptr inbounds nuw %struct.H5SM_master_table_t, ptr %53, i32 0, i32 2
  %55 = load i32, ptr %54, align 8, !tbaa !22
  %56 = zext i32 %55 to i64
  %57 = icmp ult i64 %52, %56
  br i1 %57, label %59, label %58

58:                                               ; preds = %51
  store i32 11, ptr %12, align 4
  br label %76

59:                                               ; preds = %51
  %60 = load ptr, ptr %4, align 8, !tbaa !12
  %61 = getelementptr inbounds nuw %struct.H5SM_master_table_t, ptr %60, i32 0, i32 3
  %62 = load ptr, ptr %61, align 8, !tbaa !34
  %63 = load i64, ptr %11, align 8, !tbaa !16
  %64 = getelementptr inbounds nuw %struct.H5SM_index_header_t, ptr %62, i64 %63
  %65 = getelementptr inbounds nuw %struct.H5SM_index_header_t, ptr %64, i32 0, i32 0
  %66 = load i32, ptr %65, align 8, !tbaa !38
  %67 = load i32, ptr %7, align 4, !tbaa !14
  %68 = and i32 %66, %67
  %69 = icmp ne i32 %68, 0
  br i1 %69, label %70, label %72

70:                                               ; preds = %59
  %71 = load i64, ptr %11, align 8, !tbaa !16
  store i64 %71, ptr %8, align 8, !tbaa !16
  store i32 11, ptr %12, align 4
  br label %76

72:                                               ; preds = %59
  br label %73

73:                                               ; preds = %72
  %74 = load i64, ptr %11, align 8, !tbaa !16
  %75 = add i64 %74, 1
  store i64 %75, ptr %11, align 8, !tbaa !16
  br label %51, !llvm.loop !51

76:                                               ; preds = %70, %58
  call void @llvm.lifetime.end.p0(i64 8, ptr %11) #8
  br label %77

77:                                               ; preds = %76
  %78 = load i64, ptr %8, align 8, !tbaa !16
  %79 = load ptr, ptr %6, align 8, !tbaa !50
  store i64 %78, ptr %79, align 8, !tbaa !16
  br label %80

80:                                               ; preds = %77, %45
  br label %81

81:                                               ; preds = %80, %19
  %82 = load i32, ptr %9, align 4, !tbaa !14
  store i32 1, ptr %12, align 4
  call void @llvm.lifetime.end.p0(i64 1, ptr %10) #8
  call void @llvm.lifetime.end.p0(i64 4, ptr %9) #8
  call void @llvm.lifetime.end.p0(i64 8, ptr %8) #8
  call void @llvm.lifetime.end.p0(i64 4, ptr %7) #8
  ret i32 %82
}