; Function Attrs: nounwind uwtable
define range(i32 -1, 1) i32 @H5SM__get_index(ptr noundef readonly captures(none) %0, i32 noundef %1, ptr noundef writeonly captures(none) %2) local_unnamed_addr #0 {
  %4 = load i8, ptr @H5SM_init_g, align 1, !tbaa !9, !range !11, !noundef !12
  %5 = trunc nuw i8 %4 to i1
  %6 = load i8, ptr @H5_libterm_g, align 1, !range !11
  %7 = trunc nuw i8 %6 to i1
  %8 = xor i1 %7, true
  %9 = select i1 %5, i1 true, i1 %8
  br i1 %9, label %10, label %32, !prof !13

10:                                               ; preds = %3
  %switch.tableidx = add i32 %1, -1
  %11 = icmp ult i32 %switch.tableidx, 12
  br i1 %11, label %switch.hole_check, label %19

switch.hole_check:                                ; preds = %10
  %switch.maskindex = trunc nuw i32 %switch.tableidx to i16
  %switch.shifted = lshr i16 3101, %switch.maskindex
  %switch.lobit = trunc i16 %switch.shifted to i1
  br i1 %switch.lobit, label %switch.lookup, label %19

switch.lookup:                                    ; preds = %switch.hole_check
  %12 = zext nneg i32 %switch.tableidx to i64
  %switch.gep = getelementptr inbounds nuw [12 x i32], ptr @switch.table.H5SM_get_refcount, i64 0, i64 %12
  %switch.load = load i32, ptr %switch.gep, align 4
  %13 = shl nuw nsw i32 1, %switch.load
  %14 = getelementptr inbounds nuw i8, ptr %0, i64 256
  %15 = load i32, ptr %14, align 8, !tbaa !15
  %16 = zext i32 %15 to i64
  %.not18 = icmp eq i32 %15, 0
  br i1 %.not18, label %._crit_edge, label %.lr.ph

.lr.ph:                                           ; preds = %switch.lookup
  %17 = getelementptr inbounds nuw i8, ptr %0, i64 264
  %18 = load ptr, ptr %17, align 8, !tbaa !28
  br label %26

19:                                               ; preds = %switch.hole_check, %10
  %20 = load i64, ptr @H5E_SOHM_g, align 8, !tbaa !7
  %21 = load i64, ptr @H5E_BADTYPE_g, align 8, !tbaa !7
  %22 = tail call i32 (ptr, ptr, i32, i64, i64, ptr, ...) @H5E_printf_stack(ptr noundef nonnull @.str.4, ptr noundef nonnull @__func__.H5SM__type_to_flag, i32 noundef 281, i64 noundef %20, i64 noundef %21, ptr noundef nonnull @.str.90) #11
  %23 = load i64, ptr @H5E_SOHM_g, align 8, !tbaa !7
  %24 = load i64, ptr @H5E_CANTGET_g, align 8, !tbaa !7
  %25 = tail call i32 (ptr, ptr, i32, i64, i64, ptr, ...) @H5E_printf_stack(ptr noundef nonnull @.str.4, ptr noundef nonnull @__func__.H5SM__get_index, i32 noundef 312, i64 noundef %23, i64 noundef %24, ptr noundef nonnull @.str.20) #11
  br label %32

26:                                               ; preds = %.lr.ph, %30
  %.015 = phi i64 [ 0, %.lr.ph ], [ %31, %30 ]
  %27 = getelementptr inbounds nuw %struct.H5SM_index_header_t, ptr %18, i64 %.015
  %28 = load i32, ptr %27, align 8, !tbaa !32
  %29 = and i32 %28, %13
  %.not = icmp eq i32 %29, 0
  br i1 %.not, label %30, label %._crit_edge

30:                                               ; preds = %26
  %31 = add nuw nsw i64 %.015, 1
  %exitcond.not = icmp eq i64 %31, %16
  br i1 %exitcond.not, label %._crit_edge, label %26, !llvm.loop !42

._crit_edge:                                      ; preds = %30, %26, %switch.lookup
  %.011 = phi i64 [ -1, %switch.lookup ], [ %.015, %26 ], [ -1, %30 ]
  store i64 %.011, ptr %2, align 8, !tbaa !7
  br label %32

32:                                               ; preds = %19, %._crit_edge, %3
  %.010 = phi i32 [ -1, %19 ], [ 0, %._crit_edge ], [ 0, %3 ]
  ret i32 %.010
}